target datalayout = "e-m:e-p270:32:32-p271:32:32-p272:64:64-i64:64-i128:128-f80:128-n8:16:32:64-S128"
target triple = "x86_64-pc-linux-gnu"

%struct.pmix_lock_t = type { i32, %struct.pmix_mutex_t, %union.pthread_cond_t, i8 }
%struct.pmix_mutex_t = type { %struct.pmix_object_t, %union.pthread_mutex_t }
%struct.pmix_object_t = type { %union.pthread_mutex_t, ptr, i32, %struct.pmix_tma }
%struct.pmix_tma = type { ptr, ptr, ptr, ptr, ptr, ptr, ptr, ptr }
%union.pthread_mutex_t = type { %struct.__pthread_mutex_s }
%struct.__pthread_mutex_s = type { i32, i32, i32, i32, i32, i16, i16, %struct.__pthread_internal_list }
%struct.__pthread_internal_list = type { ptr, ptr }
%union.pthread_cond_t = type { %struct.__pthread_cond_s }
%struct.__pthread_cond_s = type { %union.__atomic_wide_counter, %union.__atomic_wide_counter, [2 x i32], [2 x i32], i32, i32, [2 x i32] }
%union.__atomic_wide_counter = type { i64 }
%struct.timeval = type { i64, i64 }
%struct.pmix_list_t = type { %struct.pmix_object_t, %struct.pmix_list_item_t, i64 }
%struct.pmix_list_item_t = type { %struct.pmix_object_t, ptr, ptr, i32 }
%struct.pmix_class_t = type { ptr, ptr, ptr, ptr, i32, i32, ptr, ptr, i64 }
%struct.pmix_cb_t = type { %struct.pmix_list_item_t, %struct.event, %struct.pmix_lock_t, i8, i32, i32, i8, %struct.pmix_buffer_t, %union.anon.8, i64, ptr, %struct.pmix_name_t, ptr, ptr, ptr, ptr, i64, ptr, i64, ptr, i8, i64, %struct.pmix_list_t, i8, ptr, i8, ptr, ptr }
%struct.event = type { %struct.event_callback, %union.anon.0, i32, ptr, %union.anon.2, i16, i16, %struct.timeval }
%struct.event_callback = type { %struct.anon, i16, i8, i8, %union.anon, ptr }
%struct.anon = type { ptr, ptr }
%union.anon = type { ptr }
%union.anon.0 = type { %struct.anon.1 }
%struct.anon.1 = type { ptr, ptr }
%union.anon.2 = type { %struct.anon.3 }
%struct.anon.3 = type { %struct.anon.4, %struct.timeval }
%struct.anon.4 = type { ptr, ptr }
%struct.pmix_buffer_t = type { %struct.pmix_object_t, i8, ptr, ptr, ptr, i64, i64 }
%union.anon.8 = type { ptr }
%struct.pmix_name_t = type { ptr, i32 }

@.str.5 = private unnamed_addr constant [21 x i8] c"pthread_mutex_lock()\00", align 1

; Function Attrs: inlinehint nounwind uwtable
define internal void @pmix_tma_free(ptr noundef %0, ptr noundef %1) #2 {
  %3 = alloca ptr, align 8
  %4 = alloca ptr, align 8
  store ptr %0, ptr %3, align 8, !tbaa !68
  store ptr %1, ptr %4, align 8, !tbaa !3
  %5 = load ptr, ptr %3, align 8, !tbaa !68
  %6 = icmp ne ptr null, %5
  br i1 %6, label %7, label %13

7:                                                ; preds = %2
  %8 = load ptr, ptr %3, align 8, !tbaa !68
  %9 = getelementptr inbounds nuw %struct.pmix_tma, ptr %8, i32 0, i32 5
  %10 = load ptr, ptr %9, align 8, !tbaa !147
  %11 = load ptr, ptr %3, align 8, !tbaa !68
  %12 = load ptr, ptr %4, align 8, !tbaa !3
  call void %10(ptr noundef %11, ptr noundef %12)
  br label %15

13:                                               ; preds = %2
  %14 = load ptr, ptr %4, align 8, !tbaa !3
  call void @free(ptr noundef %14) #10
  br label %15

15:                                               ; preds = %13, %7
  ret void
}

; Function Attrs: inlinehint nounwind uwtable
define internal void @pmix_obj_run_destructors(ptr noundef %0) #2 {
  %2 = alloca ptr, align 8
  %3 = alloca ptr, align 8
  store ptr %0, ptr %2, align 8, !tbaa !66
  call void @llvm.lifetime.start.p0(i64 8, ptr %3) #10
  %4 = load ptr, ptr %2, align 8, !tbaa !66
  %5 = getelementptr inbounds nuw %struct.pmix_object_t, ptr %4, i32 0, i32 1
  %6 = load ptr, ptr %5, align 8, !tbaa !44
  %7 = getelementptr inbounds nuw %struct.pmix_class_t, ptr %6, i32 0, i32 7
  %8 = load ptr, ptr %7, align 8, !tbaa !82
  store ptr %8, ptr %3, align 8, !tbaa !3
  br label %9

9:                                                ; preds = %13, %1
  %10 = load ptr, ptr %3, align 8, !tbaa !3
  %11 = load ptr, ptr %10, align 8, !tbaa !3
  %12 = icmp ne ptr null, %11
  br i1 %12, label %13, label %19

13:                                               ; preds = %9
  %14 = load ptr, ptr %3, align 8, !tbaa !3
  %15 = load ptr, ptr %14, align 8, !tbaa !3
  %16 = load ptr, ptr %2, align 8, !tbaa !66
  call void %15(ptr noundef %16)
  %17 = load ptr, ptr %3, align 8, !tbaa !3
  %18 = getelementptr inbounds nuw ptr, ptr %17, i32 1
  store ptr %18, ptr %3, align 8, !tbaa !3
  br label %9, !llvm.loop !83

19:                                               ; preds = %9
  call void @llvm.lifetime.end.p0(i64 8, ptr %3) #10
  ret void
}

; Function Attrs: alwaysinline nounwind uwtable
define internal i32 @pmix_obj_update(ptr noundef %0, i32 noundef %1) #5 {
  %3 = alloca ptr, align 8
  %4 = alloca i32, align 4
  %5 = alloca i32, align 4
  store ptr %0, ptr %3, align 8, !tbaa !66
  store i32 %1, ptr %4, align 4, !tbaa !41
  call void @llvm.lifetime.start.p0(i64 4, ptr %5) #10
  %6 = load ptr, ptr %3, align 8, !tbaa !66
  %7 = getelementptr inbounds nuw %struct.pmix_object_t, ptr %6, i32 0, i32 0
  %8 = call i32 @pthread_mutex_lock(ptr noundef %7) #10
  store i32 %8, ptr %5, align 4, !tbaa !41
  %9 = load i32, ptr %5, align 4, !tbaa !41
  %10 = icmp eq i32 %9, 35
  br i1 %10, label %11, label %14

11:                                               ; preds = %2
  %12 = load i32, ptr %5, align 4, !tbaa !41
  %13 = call ptr @__errno_location() #11
  store i32 %12, ptr %13, align 4, !tbaa !41
  call void @perror(ptr noundef @.str.5)
  call void @abort() #12
  unreachable

14:                                               ; preds = %2
  %15 = load i32, ptr %4, align 4, !tbaa !41
  %16 = load ptr, ptr %3, align 8, !tbaa !66
  %17 = getelementptr inbounds nuw %struct.pmix_object_t, ptr %16, i32 0, i32 2
  %18 = load i32, ptr %17, align 8, !tbaa !45
  %19 = add nsw i32 %18, %15
  store i32 %19, ptr %17, align 8, !tbaa !45
  store i32 %19, ptr %5, align 4, !tbaa !41
  %20 = load ptr, ptr %3, align 8, !tbaa !66
  %21 = getelementptr inbounds nuw %struct.pmix_object_t, ptr %20, i32 0, i32 0
  %22 = call i32 @pthread_mutex_unlock(ptr noundef %21) #10
  %23 = load i32, ptr %5, align 4, !tbaa !41
  call void @llvm.lifetime.end.p0(i64 4, ptr %5) #10
  ret i32 %23
}

; Function Attrs: nounwind uwtable
define internal void @dcbfunc(i32 noundef %0, i16 noundef signext %1, ptr noundef %2) #0 {
  %4 = alloca i32, align 4
  %5 = alloca i16, align 2
  %6 = alloca ptr, align 8
  %7 = alloca ptr, align 8
  %8 = alloca i32, align 4
  %9 = alloca ptr, align 8
  store i32 %0, ptr %4, align 4, !tbaa !41
  store i16 %1, ptr %5, align 2, !tbaa !81
  store ptr %2, ptr %6, align 8, !tbaa !3
  call void @llvm.lifetime.start.p0(i64 8, ptr %7) #10
  %10 = load ptr, ptr %6, align 8, !tbaa !3
  store ptr %10, ptr %7, align 8, !tbaa !3
  %11 = load ptr, ptr %7, align 8, !tbaa !3
  %12 = getelementptr inbounds nuw %struct.pmix_cb_t, ptr %11, i32 0, i32 8
  %13 = load ptr, ptr %12, align 8, !tbaa !86
  %14 = icmp ne ptr null, %13
  br i1 %14, label %15, label %32

15:                                               ; preds = %3
  %16 = load ptr, ptr %7, align 8, !tbaa !3
  %17 = getelementptr inbounds nuw %struct.pmix_cb_t, ptr %16, i32 0, i32 8
  %18 = load ptr, ptr %17, align 8, !tbaa !86
  %19 = load ptr, ptr %7, align 8, !tbaa !3
  %20 = getelementptr inbounds nuw %struct.pmix_cb_t, ptr %19, i32 0, i32 4
  %21 = load i32, ptr %20, align 4, !tbaa !102
  %22 = load ptr, ptr %7, align 8, !tbaa !3
  %23 = getelementptr inbounds nuw %struct.pmix_cb_t, ptr %22, i32 0, i32 19
  %24 = load ptr, ptr %23, align 8, !tbaa !103
  %25 = load ptr, ptr %7, align 8, !tbaa !3
  %26 = getelementptr inbounds nuw %struct.pmix_cb_t, ptr %25, i32 0, i32 21
  %27 = load i64, ptr %26, align 8, !tbaa !104
  %28 = load ptr, ptr %7, align 8, !tbaa !3
  %29 = getelementptr inbounds nuw %struct.pmix_cb_t, ptr %28, i32 0, i32 10
  %30 = load ptr, ptr %29, align 8, !tbaa !106
  %31 = load ptr, ptr %7, align 8, !tbaa !3
  call void %18(i32 noundef %21, ptr noundef %24, i64 noundef %27, ptr noundef %30, ptr noundef @icbrelfn, ptr noundef %31)
  store i32 1, ptr %8, align 4
  br label %55

32:                                               ; preds = %3
  br label %33

33:                                               ; preds = %32
  call void @llvm.lifetime.start.p0(i64 8, ptr %9) #10
  %34 = load ptr, ptr %7, align 8, !tbaa !3
  store ptr %34, ptr %9, align 8, !tbaa !66
  %35 = load ptr, ptr %9, align 8, !tbaa !66
  %36 = call i32 @pmix_obj_update(ptr noundef %35, i32 noundef -1)
  %37 = icmp eq i32 0, %36
  br i1 %37, label %38, label %52

38:                                               ; preds = %33
  %39 = load ptr, ptr %9, align 8, !tbaa !66
  call void @pmix_obj_run_destructors(ptr noundef %39)
  %40 = load ptr, ptr %9, align 8, !tbaa !66
  %41 = getelementptr inbounds nuw %struct.pmix_object_t, ptr %40, i32 0, i32 3
  %42 = getelementptr inbounds nuw %struct.pmix_tma, ptr %41, i32 0, i32 5
  %43 = load ptr, ptr %42, align 8, !tbaa !75
  %44 = icmp ne ptr null, %43
  br i1 %44, label %45, label %49

45:                                               ; preds = %38
  %46 = load ptr, ptr %9, align 8, !tbaa !66
  %47 = getelementptr inbounds nuw %struct.pmix_object_t, ptr %46, i32 0, i32 3
  %48 = load ptr, ptr %7, align 8, !tbaa !3
  call void @pmix_tma_free(ptr noundef %47, ptr noundef %48)
  br label %51

49:                                               ; preds = %38
  %50 = load ptr, ptr %7, align 8, !tbaa !3
  call void @free(ptr noundef %50) #10
  br label %51

51:                                               ; preds = %49, %45
  store ptr null, ptr %7, align 8, !tbaa !3
  br label %52

52:                                               ; preds = %51, %33
  call void @llvm.lifetime.end.p0(i64 8, ptr %9) #10
  br label %53

53:                                               ; preds = %52
  br label %54

54:                                               ; preds = %53
  store i32 0, ptr %8, align 4
  br label %55

55:                                               ; preds = %54, %15
  call void @llvm.lifetime.end.p0(i64 8, ptr %7) #10
  %56 = load i32, ptr %8, align 4
  switch i32 %56, label %58 [
    i32 0, label %57
    i32 1, label %57
  ]

57:                                               ; preds = %55, %55
  ret void

58:                                               ; preds = %55
  unreachable
}