; Function Attrs: nounwind uwtable
define internal void @dcbfunc(i32 %0, i16 signext %1, ptr noundef %2) #0 {
  %4 = getelementptr inbounds nuw i8, ptr %2, i64 680
  %5 = load ptr, ptr %4, align 8, !tbaa !81
  %.not = icmp eq ptr %5, null
  br i1 %.not, label %15, label %6

6:                                                ; preds = %3
  %7 = getelementptr inbounds nuw i8, ptr %2, i64 500
  %8 = load i32, ptr %7, align 4, !tbaa !78
  %9 = getelementptr inbounds nuw i8, ptr %2, i64 776
  %10 = load ptr, ptr %9, align 8, !tbaa !79
  %11 = getelementptr inbounds nuw i8, ptr %2, i64 792
  %12 = load i64, ptr %11, align 8, !tbaa !80
  %13 = getelementptr inbounds nuw i8, ptr %2, i64 696
  %14 = load ptr, ptr %13, align 8, !tbaa !84
  tail call void %5(i32 noundef %8, ptr noundef %10, i64 noundef %12, ptr noundef %14, ptr noundef nonnull @icbrelfn, ptr noundef nonnull %2) #12
  br label %39

15:                                               ; preds = %3
  %16 = tail call i32 @pthread_mutex_lock(ptr noundef nonnull %2) #12
  %17 = icmp eq i32 %16, 35
  br i1 %17, label %18, label %pmix_obj_update.exit

18:                                               ; preds = %15
  %19 = tail call ptr @__errno_location() #14
  store i32 35, ptr %19, align 4, !tbaa !40
  tail call void @perror(ptr noundef nonnull @.str.5) #15
  tail call void @abort() #16
  unreachable

pmix_obj_update.exit:                             ; preds = %15
  %20 = getelementptr inbounds nuw i8, ptr %2, i64 48
  %21 = load i32, ptr %20, align 8, !tbaa !44
  %22 = add nsw i32 %21, -1
  store i32 %22, ptr %20, align 8, !tbaa !44
  %23 = tail call i32 @pthread_mutex_unlock(ptr noundef nonnull %2) #12
  %24 = icmp eq i32 %22, 0
  br i1 %24, label %25, label %39

25:                                               ; preds = %pmix_obj_update.exit
  %26 = getelementptr inbounds nuw i8, ptr %2, i64 40
  %27 = load ptr, ptr %26, align 8, !tbaa !43
  %28 = getelementptr inbounds nuw i8, ptr %27, i64 48
  %29 = load ptr, ptr %28, align 8, !tbaa !66
  %30 = load ptr, ptr %29, align 8, !tbaa !46
  %.not6.i = icmp eq ptr %30, null
  br i1 %.not6.i, label %pmix_obj_run_destructors.exit, label %.lr.ph.i

.lr.ph.i:                                         ; preds = %25, %.lr.ph.i
  %31 = phi ptr [ %33, %.lr.ph.i ], [ %30, %25 ]
  %.07.i = phi ptr [ %32, %.lr.ph.i ], [ %29, %25 ]
  tail call void %31(ptr noundef nonnull %2) #12
  %32 = getelementptr inbounds nuw i8, ptr %.07.i, i64 8
  %33 = load ptr, ptr %32, align 8, !tbaa !46
  %.not.i = icmp eq ptr %33, null
  br i1 %.not.i, label %pmix_obj_run_destructors.exit, label %.lr.ph.i, !llvm.loop !67

pmix_obj_run_destructors.exit:                    ; preds = %.lr.ph.i, %25
  %34 = getelementptr inbounds nuw i8, ptr %2, i64 96
  %35 = load ptr, ptr %34, align 8, !tbaa !94
  %.not15 = icmp eq ptr %35, null
  br i1 %.not15, label %38, label %36

36:                                               ; preds = %pmix_obj_run_destructors.exit
  %37 = getelementptr inbounds nuw i8, ptr %2, i64 56
  tail call void %35(ptr noundef nonnull %37, ptr noundef nonnull %2) #12
  br label %39

38:                                               ; preds = %pmix_obj_run_destructors.exit
  tail call void @free(ptr noundef nonnull %2) #12
  br label %39

39:                                               ; preds = %pmix_obj_update.exit, %38, %36, %6
  ret void
}